; Function Attrs: mustprogress ssp uwtable
define internal noundef zeroext i1 @"_ZNSt17_Function_handlerIFviRN5Eigen6MatrixIdLi14ELi1ELi0ELi14ELi1EEERdRNS1_IiLi14ELi1ELi0ELi14ELi1EEEEZN6open3d9pipelines9color_map20RunNonRigidOptimizerERKNS8_8geometry12TriangleMeshERKSt6vectorINSB_9RGBDImageESaISG_EERKNS8_6camera23PinholeCameraTrajectoryERKNSA_23NonRigidOptimizerOptionEE3$_0E10_M_managerERSt9_Any_dataRKSU_St18_Manager_operation"(ptr noundef nonnull align 8 captures(none) dereferenceable(16) %0, ptr noundef nonnull readonly align 8 captures(none) dereferenceable(16) %1, i32 noundef %2) #1 align 2 {
  switch i32 %2, label %"_ZNSt14_Function_base13_Base_managerIZN6open3d9pipelines9color_map20RunNonRigidOptimizerERKNS1_8geometry12TriangleMeshERKSt6vectorINS4_9RGBDImageESaIS9_EERKNS1_6camera23PinholeCameraTrajectoryERKNS3_23NonRigidOptimizerOptionEE3$_0E10_M_managerERSt9_Any_dataRKSN_St18_Manager_operation.exit" [
    i32 0, label %4
    i32 1, label %5
    i32 3, label %8
    i32 2, label %6
  ]

4:                                                ; preds = %3
  store ptr @"_ZTIZN6open3d9pipelines9color_map20RunNonRigidOptimizerERKNS_8geometry12TriangleMeshERKSt6vectorINS2_9RGBDImageESaIS7_EERKNS_6camera23PinholeCameraTrajectoryERKNS1_23NonRigidOptimizerOptionEE3$_0", ptr %0, align 8, !tbaa !976
  br label %"_ZNSt14_Function_base13_Base_managerIZN6open3d9pipelines9color_map20RunNonRigidOptimizerERKNS1_8geometry12TriangleMeshERKSt6vectorINS4_9RGBDImageESaIS9_EERKNS1_6camera23PinholeCameraTrajectoryERKNS3_23NonRigidOptimizerOptionEE3$_0E10_M_managerERSt9_Any_dataRKSN_St18_Manager_operation.exit"

5:                                                ; preds = %3
  %.val = load ptr, ptr %1, align 8, !tbaa !265
  store ptr %.val, ptr %0, align 8, !tbaa !265
  br label %"_ZNSt14_Function_base13_Base_managerIZN6open3d9pipelines9color_map20RunNonRigidOptimizerERKNS1_8geometry12TriangleMeshERKSt6vectorINS4_9RGBDImageESaIS9_EERKNS1_6camera23PinholeCameraTrajectoryERKNS3_23NonRigidOptimizerOptionEE3$_0E10_M_managerERSt9_Any_dataRKSN_St18_Manager_operation.exit"

6:                                                ; preds = %3
  %.val6 = load ptr, ptr %1, align 8
  %7 = tail call noalias noundef nonnull dereferenceable(88) ptr @_Znwm(i64 noundef 88) #37
  tail call void @llvm.memcpy.p0.p0.i64(ptr noundef nonnull align 16 dereferenceable(88) %7, ptr noundef nonnull readonly align 8 dereferenceable(88) %.val6, i64 88, i1 false), !tbaa.struct !978
  store ptr %7, ptr %0, align 8, !tbaa !265
  br label %"_ZNSt14_Function_base13_Base_managerIZN6open3d9pipelines9color_map20RunNonRigidOptimizerERKNS1_8geometry12TriangleMeshERKSt6vectorINS4_9RGBDImageESaIS9_EERKNS1_6camera23PinholeCameraTrajectoryERKNS3_23NonRigidOptimizerOptionEE3$_0E10_M_managerERSt9_Any_dataRKSN_St18_Manager_operation.exit"

8:                                                ; preds = %3
  %.val7.i = load ptr, ptr %0, align 8, !tbaa !265
  %9 = icmp eq ptr %.val7.i, null
  br i1 %9, label %"_ZNSt14_Function_base13_Base_managerIZN6open3d9pipelines9color_map20RunNonRigidOptimizerERKNS1_8geometry12TriangleMeshERKSt6vectorINS4_9RGBDImageESaIS9_EERKNS1_6camera23PinholeCameraTrajectoryERKNS3_23NonRigidOptimizerOptionEE3$_0E10_M_managerERSt9_Any_dataRKSN_St18_Manager_operation.exit", label %10

10:                                               ; preds = %8
  tail call void @_ZdlPvm(ptr noundef nonnull %.val7.i, i64 noundef 88) #38
  br label %"_ZNSt14_Function_base13_Base_managerIZN6open3d9pipelines9color_map20RunNonRigidOptimizerERKNS1_8geometry12TriangleMeshERKSt6vectorINS4_9RGBDImageESaIS9_EERKNS1_6camera23PinholeCameraTrajectoryERKNS3_23NonRigidOptimizerOptionEE3$_0E10_M_managerERSt9_Any_dataRKSN_St18_Manager_operation.exit"

"_ZNSt14_Function_base13_Base_managerIZN6open3d9pipelines9color_map20RunNonRigidOptimizerERKNS1_8geometry12TriangleMeshERKSt6vectorINS4_9RGBDImageESaIS9_EERKNS1_6camera23PinholeCameraTrajectoryERKNS3_23NonRigidOptimizerOptionEE3$_0E10_M_managerERSt9_Any_dataRKSN_St18_Manager_operation.exit": ; preds = %3, %10, %8, %6, %5, %4
  ret i1 false
}